target datalayout = "e-m:e-p270:32:32-p271:32:32-p272:64:64-i64:64-i128:128-f80:128-n8:16:32:64-S128"
target triple = "x86_64-pc-linux-gnu"

%struct.ec_method_st = type { i32, i32, ptr, ptr, ptr, ptr, ptr, ptr, ptr, ptr, ptr, ptr, ptr, ptr, ptr, ptr, ptr, ptr, ptr, ptr, ptr, ptr, ptr, ptr, ptr, ptr, ptr, ptr, ptr, ptr, ptr, ptr, ptr, ptr, ptr, ptr, ptr, ptr, ptr, ptr, ptr, ptr, ptr, ptr, ptr, ptr, ptr, ptr, ptr, ptr, ptr, ptr, ptr, ptr, ptr, ptr, ptr }
%struct.ec_group_st = type { ptr, ptr, ptr, ptr, i32, i32, i32, i32, ptr, i64, ptr, [6 x i32], ptr, ptr, i32, ptr, ptr, ptr, ptr, i32, %union.anon, ptr, ptr }
%union.anon = type { ptr }
%struct.ec_point_st = type { ptr, i32, ptr, ptr, ptr, i32 }

; Function Attrs: nounwind uwtable
define i32 @ossl_ec_GFp_simple_is_on_curve(ptr noundef %0, ptr noundef %1, ptr noundef %2) #0 {
  %4 = alloca i32, align 4
  %5 = alloca ptr, align 8
  %6 = alloca ptr, align 8
  %7 = alloca ptr, align 8
  %8 = alloca ptr, align 8
  %9 = alloca ptr, align 8
  %10 = alloca ptr, align 8
  %11 = alloca ptr, align 8
  %12 = alloca ptr, align 8
  %13 = alloca ptr, align 8
  %14 = alloca ptr, align 8
  %15 = alloca ptr, align 8
  %16 = alloca i32, align 4
  %17 = alloca i32, align 4
  store ptr %0, ptr %5, align 8, !tbaa !3
  store ptr %1, ptr %6, align 8, !tbaa !30
  store ptr %2, ptr %7, align 8, !tbaa !22
  call void @llvm.lifetime.start.p0(i64 8, ptr %8) #3
  call void @llvm.lifetime.start.p0(i64 8, ptr %9) #3
  call void @llvm.lifetime.start.p0(i64 8, ptr %10) #3
  call void @llvm.lifetime.start.p0(i64 8, ptr %11) #3
  store ptr null, ptr %11, align 8, !tbaa !22
  call void @llvm.lifetime.start.p0(i64 8, ptr %12) #3
  call void @llvm.lifetime.start.p0(i64 8, ptr %13) #3
  call void @llvm.lifetime.start.p0(i64 8, ptr %14) #3
  call void @llvm.lifetime.start.p0(i64 8, ptr %15) #3
  call void @llvm.lifetime.start.p0(i64 4, ptr %16) #3
  store i32 -1, ptr %16, align 4, !tbaa !24
  %18 = load ptr, ptr %5, align 8, !tbaa !3
  %19 = load ptr, ptr %6, align 8, !tbaa !30
  %20 = call i32 @EC_POINT_is_at_infinity(ptr noundef %18, ptr noundef %19)
  %21 = icmp ne i32 %20, 0
  br i1 %21, label %22, label %23

22:                                               ; preds = %3
  store i32 1, ptr %4, align 4
  store i32 1, ptr %17, align 4
  br label %256

23:                                               ; preds = %3
  %24 = load ptr, ptr %5, align 8, !tbaa !3
  %25 = getelementptr inbounds nuw %struct.ec_group_st, ptr %24, i32 0, i32 0
  %26 = load ptr, ptr %25, align 8, !tbaa !26
  %27 = getelementptr inbounds nuw %struct.ec_method_st, ptr %26, i32 0, i32 32
  %28 = load ptr, ptr %27, align 8, !tbaa !39
  store ptr %28, ptr %8, align 8, !tbaa !40
  %29 = load ptr, ptr %5, align 8, !tbaa !3
  %30 = getelementptr inbounds nuw %struct.ec_group_st, ptr %29, i32 0, i32 0
  %31 = load ptr, ptr %30, align 8, !tbaa !26
  %32 = getelementptr inbounds nuw %struct.ec_method_st, ptr %31, i32 0, i32 33
  %33 = load ptr, ptr %32, align 8, !tbaa !38
  store ptr %33, ptr %9, align 8, !tbaa !40
  %34 = load ptr, ptr %5, align 8, !tbaa !3
  %35 = getelementptr inbounds nuw %struct.ec_group_st, ptr %34, i32 0, i32 10
  %36 = load ptr, ptr %35, align 8, !tbaa !8
  store ptr %36, ptr %10, align 8, !tbaa !21
  %37 = load ptr, ptr %7, align 8, !tbaa !22
  %38 = icmp eq ptr %37, null
  br i1 %38, label %39, label %48

39:                                               ; preds = %23
  %40 = load ptr, ptr %5, align 8, !tbaa !3
  %41 = getelementptr inbounds nuw %struct.ec_group_st, ptr %40, i32 0, i32 21
  %42 = load ptr, ptr %41, align 8, !tbaa !25
  %43 = call ptr @BN_CTX_new_ex(ptr noundef %42)
  store ptr %43, ptr %11, align 8, !tbaa !22
  store ptr %43, ptr %7, align 8, !tbaa !22
  %44 = load ptr, ptr %7, align 8, !tbaa !22
  %45 = icmp eq ptr %44, null
  br i1 %45, label %46, label %47

46:                                               ; preds = %39
  store i32 -1, ptr %4, align 4
  store i32 1, ptr %17, align 4
  br label %256

47:                                               ; preds = %39
  br label %48

48:                                               ; preds = %47, %23
  %49 = load ptr, ptr %7, align 8, !tbaa !22
  call void @BN_CTX_start(ptr noundef %49)
  %50 = load ptr, ptr %7, align 8, !tbaa !22
  %51 = call ptr @BN_CTX_get(ptr noundef %50)
  store ptr %51, ptr %12, align 8, !tbaa !21
  %52 = load ptr, ptr %7, align 8, !tbaa !22
  %53 = call ptr @BN_CTX_get(ptr noundef %52)
  store ptr %53, ptr %13, align 8, !tbaa !21
  %54 = load ptr, ptr %7, align 8, !tbaa !22
  %55 = call ptr @BN_CTX_get(ptr noundef %54)
  store ptr %55, ptr %14, align 8, !tbaa !21
  %56 = load ptr, ptr %7, align 8, !tbaa !22
  %57 = call ptr @BN_CTX_get(ptr noundef %56)
  store ptr %57, ptr %15, align 8, !tbaa !21
  %58 = load ptr, ptr %15, align 8, !tbaa !21
  %59 = icmp eq ptr %58, null
  br i1 %59, label %60, label %61

60:                                               ; preds = %48
  br label %252

61:                                               ; preds = %48
  %62 = load ptr, ptr %9, align 8, !tbaa !40
  %63 = load ptr, ptr %5, align 8, !tbaa !3
  %64 = load ptr, ptr %12, align 8, !tbaa !21
  %65 = load ptr, ptr %6, align 8, !tbaa !30
  %66 = getelementptr inbounds nuw %struct.ec_point_st, ptr %65, i32 0, i32 2
  %67 = load ptr, ptr %66, align 8, !tbaa !31
  %68 = load ptr, ptr %7, align 8, !tbaa !22
  %69 = call i32 %62(ptr noundef %63, ptr noundef %64, ptr noundef %67, ptr noundef %68)
  %70 = icmp ne i32 %69, 0
  br i1 %70, label %72, label %71

71:                                               ; preds = %61
  br label %252

72:                                               ; preds = %61
  %73 = load ptr, ptr %6, align 8, !tbaa !30
  %74 = getelementptr inbounds nuw %struct.ec_point_st, ptr %73, i32 0, i32 5
  %75 = load i32, ptr %74, align 8, !tbaa !35
  %76 = icmp ne i32 %75, 0
  br i1 %76, label %202, label %77

77:                                               ; preds = %72
  %78 = load ptr, ptr %9, align 8, !tbaa !40
  %79 = load ptr, ptr %5, align 8, !tbaa !3
  %80 = load ptr, ptr %13, align 8, !tbaa !21
  %81 = load ptr, ptr %6, align 8, !tbaa !30
  %82 = getelementptr inbounds nuw %struct.ec_point_st, ptr %81, i32 0, i32 4
  %83 = load ptr, ptr %82, align 8, !tbaa !34
  %84 = load ptr, ptr %7, align 8, !tbaa !22
  %85 = call i32 %78(ptr noundef %79, ptr noundef %80, ptr noundef %83, ptr noundef %84)
  %86 = icmp ne i32 %85, 0
  br i1 %86, label %88, label %87

87:                                               ; preds = %77
  br label %252

88:                                               ; preds = %77
  %89 = load ptr, ptr %9, align 8, !tbaa !40
  %90 = load ptr, ptr %5, align 8, !tbaa !3
  %91 = load ptr, ptr %14, align 8, !tbaa !21
  %92 = load ptr, ptr %13, align 8, !tbaa !21
  %93 = load ptr, ptr %7, align 8, !tbaa !22
  %94 = call i32 %89(ptr noundef %90, ptr noundef %91, ptr noundef %92, ptr noundef %93)
  %95 = icmp ne i32 %94, 0
  br i1 %95, label %97, label %96

96:                                               ; preds = %88
  br label %252

97:                                               ; preds = %88
  %98 = load ptr, ptr %8, align 8, !tbaa !40
  %99 = load ptr, ptr %5, align 8, !tbaa !3
  %100 = load ptr, ptr %15, align 8, !tbaa !21
  %101 = load ptr, ptr %14, align 8, !tbaa !21
  %102 = load ptr, ptr %13, align 8, !tbaa !21
  %103 = load ptr, ptr %7, align 8, !tbaa !22
  %104 = call i32 %98(ptr noundef %99, ptr noundef %100, ptr noundef %101, ptr noundef %102, ptr noundef %103)
  %105 = icmp ne i32 %104, 0
  br i1 %105, label %107, label %106

106:                                              ; preds = %97
  br label %252

107:                                              ; preds = %97
  %108 = load ptr, ptr %5, align 8, !tbaa !3
  %109 = getelementptr inbounds nuw %struct.ec_group_st, ptr %108, i32 0, i32 14
  %110 = load i32, ptr %109, align 8, !tbaa !20
  %111 = icmp ne i32 %110, 0
  br i1 %111, label %112, label %148

112:                                              ; preds = %107
  %113 = load ptr, ptr %13, align 8, !tbaa !21
  %114 = load ptr, ptr %14, align 8, !tbaa !21
  %115 = load ptr, ptr %10, align 8, !tbaa !21
  %116 = call i32 @BN_mod_lshift1_quick(ptr noundef %113, ptr noundef %114, ptr noundef %115)
  %117 = icmp ne i32 %116, 0
  br i1 %117, label %119, label %118

118:                                              ; preds = %112
  br label %252

119:                                              ; preds = %112
  %120 = load ptr, ptr %13, align 8, !tbaa !21
  %121 = load ptr, ptr %13, align 8, !tbaa !21
  %122 = load ptr, ptr %14, align 8, !tbaa !21
  %123 = load ptr, ptr %10, align 8, !tbaa !21
  %124 = call i32 @BN_mod_add_quick(ptr noundef %120, ptr noundef %121, ptr noundef %122, ptr noundef %123)
  %125 = icmp ne i32 %124, 0
  br i1 %125, label %127, label %126

126:                                              ; preds = %119
  br label %252

127:                                              ; preds = %119
  %128 = load ptr, ptr %12, align 8, !tbaa !21
  %129 = load ptr, ptr %12, align 8, !tbaa !21
  %130 = load ptr, ptr %13, align 8, !tbaa !21
  %131 = load ptr, ptr %10, align 8, !tbaa !21
  %132 = call i32 @BN_mod_sub_quick(ptr noundef %128, ptr noundef %129, ptr noundef %130, ptr noundef %131)
  %133 = icmp ne i32 %132, 0
  br i1 %133, label %135, label %134

134:                                              ; preds = %127
  br label %252

135:                                              ; preds = %127
  %136 = load ptr, ptr %8, align 8, !tbaa !40
  %137 = load ptr, ptr %5, align 8, !tbaa !3
  %138 = load ptr, ptr %12, align 8, !tbaa !21
  %139 = load ptr, ptr %12, align 8, !tbaa !21
  %140 = load ptr, ptr %6, align 8, !tbaa !30
  %141 = getelementptr inbounds nuw %struct.ec_point_st, ptr %140, i32 0, i32 2
  %142 = load ptr, ptr %141, align 8, !tbaa !31
  %143 = load ptr, ptr %7, align 8, !tbaa !22
  %144 = call i32 %136(ptr noundef %137, ptr noundef %138, ptr noundef %139, ptr noundef %142, ptr noundef %143)
  %145 = icmp ne i32 %144, 0
  br i1 %145, label %147, label %146

146:                                              ; preds = %135
  br label %252

147:                                              ; preds = %135
  br label %181

148:                                              ; preds = %107
  %149 = load ptr, ptr %8, align 8, !tbaa !40
  %150 = load ptr, ptr %5, align 8, !tbaa !3
  %151 = load ptr, ptr %13, align 8, !tbaa !21
  %152 = load ptr, ptr %14, align 8, !tbaa !21
  %153 = load ptr, ptr %5, align 8, !tbaa !3
  %154 = getelementptr inbounds nuw %struct.ec_group_st, ptr %153, i32 0, i32 12
  %155 = load ptr, ptr %154, align 8, !tbaa !18
  %156 = load ptr, ptr %7, align 8, !tbaa !22
  %157 = call i32 %149(ptr noundef %150, ptr noundef %151, ptr noundef %152, ptr noundef %155, ptr noundef %156)
  %158 = icmp ne i32 %157, 0
  br i1 %158, label %160, label %159

159:                                              ; preds = %148
  br label %252

160:                                              ; preds = %148
  %161 = load ptr, ptr %12, align 8, !tbaa !21
  %162 = load ptr, ptr %12, align 8, !tbaa !21
  %163 = load ptr, ptr %13, align 8, !tbaa !21
  %164 = load ptr, ptr %10, align 8, !tbaa !21
  %165 = call i32 @BN_mod_add_quick(ptr noundef %161, ptr noundef %162, ptr noundef %163, ptr noundef %164)
  %166 = icmp ne i32 %165, 0
  br i1 %166, label %168, label %167

167:                                              ; preds = %160
  br label %252

168:                                              ; preds = %160
  %169 = load ptr, ptr %8, align 8, !tbaa !40
  %170 = load ptr, ptr %5, align 8, !tbaa !3
  %171 = load ptr, ptr %12, align 8, !tbaa !21
  %172 = load ptr, ptr %12, align 8, !tbaa !21
  %173 = load ptr, ptr %6, align 8, !tbaa !30
  %174 = getelementptr inbounds nuw %struct.ec_point_st, ptr %173, i32 0, i32 2
  %175 = load ptr, ptr %174, align 8, !tbaa !31
  %176 = load ptr, ptr %7, align 8, !tbaa !22
  %177 = call i32 %169(ptr noundef %170, ptr noundef %171, ptr noundef %172, ptr noundef %175, ptr noundef %176)
  %178 = icmp ne i32 %177, 0
  br i1 %178, label %180, label %179

179:                                              ; preds = %168
  br label %252

180:                                              ; preds = %168
  br label %181

181:                                              ; preds = %180, %147
  %182 = load ptr, ptr %8, align 8, !tbaa !40
  %183 = load ptr, ptr %5, align 8, !tbaa !3
  %184 = load ptr, ptr %13, align 8, !tbaa !21
  %185 = load ptr, ptr %5, align 8, !tbaa !3
  %186 = getelementptr inbounds nuw %struct.ec_group_st, ptr %185, i32 0, i32 13
  %187 = load ptr, ptr %186, align 8, !tbaa !19
  %188 = load ptr, ptr %15, align 8, !tbaa !21
  %189 = load ptr, ptr %7, align 8, !tbaa !22
  %190 = call i32 %182(ptr noundef %183, ptr noundef %184, ptr noundef %187, ptr noundef %188, ptr noundef %189)
  %191 = icmp ne i32 %190, 0
  br i1 %191, label %193, label %192

192:                                              ; preds = %181
  br label %252

193:                                              ; preds = %181
  %194 = load ptr, ptr %12, align 8, !tbaa !21
  %195 = load ptr, ptr %12, align 8, !tbaa !21
  %196 = load ptr, ptr %13, align 8, !tbaa !21
  %197 = load ptr, ptr %10, align 8, !tbaa !21
  %198 = call i32 @BN_mod_add_quick(ptr noundef %194, ptr noundef %195, ptr noundef %196, ptr noundef %197)
  %199 = icmp ne i32 %198, 0
  br i1 %199, label %201, label %200

200:                                              ; preds = %193
  br label %252

201:                                              ; preds = %193
  br label %235

202:                                              ; preds = %72
  %203 = load ptr, ptr %12, align 8, !tbaa !21
  %204 = load ptr, ptr %12, align 8, !tbaa !21
  %205 = load ptr, ptr %5, align 8, !tbaa !3
  %206 = getelementptr inbounds nuw %struct.ec_group_st, ptr %205, i32 0, i32 12
  %207 = load ptr, ptr %206, align 8, !tbaa !18
  %208 = load ptr, ptr %10, align 8, !tbaa !21
  %209 = call i32 @BN_mod_add_quick(ptr noundef %203, ptr noundef %204, ptr noundef %207, ptr noundef %208)
  %210 = icmp ne i32 %209, 0
  br i1 %210, label %212, label %211

211:                                              ; preds = %202
  br label %252

212:                                              ; preds = %202
  %213 = load ptr, ptr %8, align 8, !tbaa !40
  %214 = load ptr, ptr %5, align 8, !tbaa !3
  %215 = load ptr, ptr %12, align 8, !tbaa !21
  %216 = load ptr, ptr %12, align 8, !tbaa !21
  %217 = load ptr, ptr %6, align 8, !tbaa !30
  %218 = getelementptr inbounds nuw %struct.ec_point_st, ptr %217, i32 0, i32 2
  %219 = load ptr, ptr %218, align 8, !tbaa !31
  %220 = load ptr, ptr %7, align 8, !tbaa !22
  %221 = call i32 %213(ptr noundef %214, ptr noundef %215, ptr noundef %216, ptr noundef %219, ptr noundef %220)
  %222 = icmp ne i32 %221, 0
  br i1 %222, label %224, label %223

223:                                              ; preds = %212
  br label %252

224:                                              ; preds = %212
  %225 = load ptr, ptr %12, align 8, !tbaa !21
  %226 = load ptr, ptr %12, align 8, !tbaa !21
  %227 = load ptr, ptr %5, align 8, !tbaa !3
  %228 = getelementptr inbounds nuw %struct.ec_group_st, ptr %227, i32 0, i32 13
  %229 = load ptr, ptr %228, align 8, !tbaa !19
  %230 = load ptr, ptr %10, align 8, !tbaa !21
  %231 = call i32 @BN_mod_add_quick(ptr noundef %225, ptr noundef %226, ptr noundef %229, ptr noundef %230)
  %232 = icmp ne i32 %231, 0
  br i1 %232, label %234, label %233

233:                                              ; preds = %224
  br label %252

234:                                              ; preds = %224
  br label %235

235:                                              ; preds = %234, %201
  %236 = load ptr, ptr %9, align 8, !tbaa !40
  %237 = load ptr, ptr %5, align 8, !tbaa !3
  %238 = load ptr, ptr %13, align 8, !tbaa !21
  %239 = load ptr, ptr %6, align 8, !tbaa !30
  %240 = getelementptr inbounds nuw %struct.ec_point_st, ptr %239, i32 0, i32 3
  %241 = load ptr, ptr %240, align 8, !tbaa !33
  %242 = load ptr, ptr %7, align 8, !tbaa !22
  %243 = call i32 %236(ptr noundef %237, ptr noundef %238, ptr noundef %241, ptr noundef %242)
  %244 = icmp ne i32 %243, 0
  br i1 %244, label %246, label %245

245:                                              ; preds = %235
  br label %252

246:                                              ; preds = %235
  %247 = load ptr, ptr %13, align 8, !tbaa !21
  %248 = load ptr, ptr %12, align 8, !tbaa !21
  %249 = call i32 @BN_ucmp(ptr noundef %247, ptr noundef %248)
  %250 = icmp eq i32 0, %249
  %251 = zext i1 %250 to i32
  store i32 %251, ptr %16, align 4, !tbaa !24
  br label %252

252:                                              ; preds = %246, %245, %233, %223, %211, %200, %192, %179, %167, %159, %146, %134, %126, %118, %106, %96, %87, %71, %60
  %253 = load ptr, ptr %7, align 8, !tbaa !22
  call void @BN_CTX_end(ptr noundef %253)
  %254 = load ptr, ptr %11, align 8, !tbaa !22
  call void @BN_CTX_free(ptr noundef %254)
  %255 = load i32, ptr %16, align 4, !tbaa !24
  store i32 %255, ptr %4, align 4
  store i32 1, ptr %17, align 4
  br label %256

256:                                              ; preds = %252, %46, %22
  call void @llvm.lifetime.end.p0(i64 4, ptr %16) #3
  call void @llvm.lifetime.end.p0(i64 8, ptr %15) #3
  call void @llvm.lifetime.end.p0(i64 8, ptr %14) #3
  call void @llvm.lifetime.end.p0(i64 8, ptr %13) #3
  call void @llvm.lifetime.end.p0(i64 8, ptr %12) #3
  call void @llvm.lifetime.end.p0(i64 8, ptr %11) #3
  call void @llvm.lifetime.end.p0(i64 8, ptr %10) #3
  call void @llvm.lifetime.end.p0(i64 8, ptr %9) #3
  call void @llvm.lifetime.end.p0(i64 8, ptr %8) #3
  %257 = load i32, ptr %4, align 4
  ret i32 %257
}