; Function Attrs: nounwind uwtable
define range(i32 -1, 2) i32 @ossl_ec_GFp_simple_is_on_curve(ptr noundef %0, ptr noundef %1, ptr noundef %2) #1 {
  %4 = tail call i32 @EC_POINT_is_at_infinity(ptr noundef %0, ptr noundef %1) #4
  %.not = icmp eq i32 %4, 0
  br i1 %.not, label %5, label %87

5:                                                ; preds = %3
  %6 = load ptr, ptr %0, align 8, !tbaa !20
  %7 = getelementptr inbounds nuw i8, ptr %6, i64 248
  %8 = load ptr, ptr %7, align 8, !tbaa !32
  %9 = getelementptr inbounds nuw i8, ptr %6, i64 256
  %10 = load ptr, ptr %9, align 8, !tbaa !31
  %11 = getelementptr inbounds nuw i8, ptr %0, i64 64
  %12 = load ptr, ptr %11, align 8, !tbaa !3
  %13 = icmp eq ptr %2, null
  br i1 %13, label %14, label %19

14:                                               ; preds = %5
  %15 = getelementptr inbounds nuw i8, ptr %0, i64 168
  %16 = load ptr, ptr %15, align 8, !tbaa !19
  %17 = tail call ptr @BN_CTX_new_ex(ptr noundef %16) #4
  %18 = icmp eq ptr %17, null
  br i1 %18, label %87, label %19

19:                                               ; preds = %14, %5
  %.0106 = phi ptr [ %17, %14 ], [ null, %5 ]
  %.0105 = phi ptr [ %17, %14 ], [ %2, %5 ]
  tail call void @BN_CTX_start(ptr noundef nonnull %.0105) #4
  %20 = tail call ptr @BN_CTX_get(ptr noundef nonnull %.0105) #4
  %21 = tail call ptr @BN_CTX_get(ptr noundef nonnull %.0105) #4
  %22 = tail call ptr @BN_CTX_get(ptr noundef nonnull %.0105) #4
  %23 = tail call ptr @BN_CTX_get(ptr noundef nonnull %.0105) #4
  %24 = icmp eq ptr %23, null
  br i1 %24, label %86, label %25

25:                                               ; preds = %19
  %26 = getelementptr inbounds nuw i8, ptr %1, i64 16
  %27 = load ptr, ptr %26, align 8, !tbaa !24
  %28 = tail call i32 %10(ptr noundef nonnull %0, ptr noundef %20, ptr noundef %27, ptr noundef nonnull %.0105) #4
  %.not110 = icmp eq i32 %28, 0
  br i1 %.not110, label %86, label %29

29:                                               ; preds = %25
  %30 = getelementptr inbounds nuw i8, ptr %1, i64 40
  %31 = load i32, ptr %30, align 8, !tbaa !28
  %.not111 = icmp eq i32 %31, 0
  br i1 %.not111, label %32, label %67

32:                                               ; preds = %29
  %33 = getelementptr inbounds nuw i8, ptr %1, i64 32
  %34 = load ptr, ptr %33, align 8, !tbaa !27
  %35 = tail call i32 %10(ptr noundef nonnull %0, ptr noundef %21, ptr noundef %34, ptr noundef nonnull %.0105) #4
  %.not112 = icmp eq i32 %35, 0
  br i1 %.not112, label %86, label %36

36:                                               ; preds = %32
  %37 = tail call i32 %10(ptr noundef nonnull %0, ptr noundef %22, ptr noundef %21, ptr noundef nonnull %.0105) #4
  %.not113 = icmp eq i32 %37, 0
  br i1 %.not113, label %86, label %38

38:                                               ; preds = %36
  %39 = tail call i32 %8(ptr noundef nonnull %0, ptr noundef nonnull %23, ptr noundef %22, ptr noundef %21, ptr noundef nonnull %.0105) #4
  %.not114 = icmp eq i32 %39, 0
  br i1 %.not114, label %86, label %40

40:                                               ; preds = %38
  %41 = getelementptr inbounds nuw i8, ptr %0, i64 112
  %42 = load i32, ptr %41, align 8, !tbaa !18
  %.not115 = icmp eq i32 %42, 0
  br i1 %.not115, label %52, label %43

43:                                               ; preds = %40
  %44 = tail call i32 @BN_mod_lshift1_quick(ptr noundef %21, ptr noundef %22, ptr noundef %12) #4
  %.not119 = icmp eq i32 %44, 0
  br i1 %.not119, label %86, label %45

45:                                               ; preds = %43
  %46 = tail call i32 @BN_mod_add_quick(ptr noundef %21, ptr noundef %21, ptr noundef %22, ptr noundef %12) #4
  %.not120 = icmp eq i32 %46, 0
  br i1 %.not120, label %86, label %47

47:                                               ; preds = %45
  %48 = tail call i32 @BN_mod_sub_quick(ptr noundef %20, ptr noundef %20, ptr noundef %21, ptr noundef %12) #4
  %.not121 = icmp eq i32 %48, 0
  br i1 %.not121, label %86, label %49

49:                                               ; preds = %47
  %50 = load ptr, ptr %26, align 8, !tbaa !24
  %51 = tail call i32 %8(ptr noundef nonnull %0, ptr noundef %20, ptr noundef %20, ptr noundef %50, ptr noundef nonnull %.0105) #4
  %.not122 = icmp eq i32 %51, 0
  br i1 %.not122, label %86, label %61

52:                                               ; preds = %40
  %53 = getelementptr inbounds nuw i8, ptr %0, i64 96
  %54 = load ptr, ptr %53, align 8, !tbaa !16
  %55 = tail call i32 %8(ptr noundef nonnull %0, ptr noundef %21, ptr noundef %22, ptr noundef %54, ptr noundef nonnull %.0105) #4
  %.not116 = icmp eq i32 %55, 0
  br i1 %.not116, label %86, label %56

56:                                               ; preds = %52
  %57 = tail call i32 @BN_mod_add_quick(ptr noundef %20, ptr noundef %20, ptr noundef %21, ptr noundef %12) #4
  %.not117 = icmp eq i32 %57, 0
  br i1 %.not117, label %86, label %58

58:                                               ; preds = %56
  %59 = load ptr, ptr %26, align 8, !tbaa !24
  %60 = tail call i32 %8(ptr noundef nonnull %0, ptr noundef %20, ptr noundef %20, ptr noundef %59, ptr noundef nonnull %.0105) #4
  %.not118 = icmp eq i32 %60, 0
  br i1 %.not118, label %86, label %61

61:                                               ; preds = %58, %49
  %62 = getelementptr inbounds nuw i8, ptr %0, i64 104
  %63 = load ptr, ptr %62, align 8, !tbaa !17
  %64 = tail call i32 %8(ptr noundef nonnull %0, ptr noundef %21, ptr noundef %63, ptr noundef nonnull %23, ptr noundef nonnull %.0105) #4
  %.not123 = icmp eq i32 %64, 0
  br i1 %.not123, label %86, label %65

65:                                               ; preds = %61
  %66 = tail call i32 @BN_mod_add_quick(ptr noundef %20, ptr noundef %20, ptr noundef %21, ptr noundef %12) #4
  %.not124 = icmp eq i32 %66, 0
  br i1 %.not124, label %86, label %78

67:                                               ; preds = %29
  %68 = getelementptr inbounds nuw i8, ptr %0, i64 96
  %69 = load ptr, ptr %68, align 8, !tbaa !16
  %70 = tail call i32 @BN_mod_add_quick(ptr noundef %20, ptr noundef %20, ptr noundef %69, ptr noundef %12) #4
  %.not125 = icmp eq i32 %70, 0
  br i1 %.not125, label %86, label %71

71:                                               ; preds = %67
  %72 = load ptr, ptr %26, align 8, !tbaa !24
  %73 = tail call i32 %8(ptr noundef nonnull %0, ptr noundef %20, ptr noundef %20, ptr noundef %72, ptr noundef nonnull %.0105) #4
  %.not126 = icmp eq i32 %73, 0
  br i1 %.not126, label %86, label %74

74:                                               ; preds = %71
  %75 = getelementptr inbounds nuw i8, ptr %0, i64 104
  %76 = load ptr, ptr %75, align 8, !tbaa !17
  %77 = tail call i32 @BN_mod_add_quick(ptr noundef %20, ptr noundef %20, ptr noundef %76, ptr noundef %12) #4
  %.not127 = icmp eq i32 %77, 0
  br i1 %.not127, label %86, label %78

78:                                               ; preds = %74, %65
  %79 = getelementptr inbounds nuw i8, ptr %1, i64 24
  %80 = load ptr, ptr %79, align 8, !tbaa !26
  %81 = tail call i32 %10(ptr noundef nonnull %0, ptr noundef %21, ptr noundef %80, ptr noundef nonnull %.0105) #4
  %.not128 = icmp eq i32 %81, 0
  br i1 %.not128, label %86, label %82

82:                                               ; preds = %78
  %83 = tail call i32 @BN_ucmp(ptr noundef %21, ptr noundef %20) #4
  %84 = icmp eq i32 %83, 0
  %85 = zext i1 %84 to i32
  br label %86

86:                                               ; preds = %78, %74, %71, %67, %65, %61, %58, %56, %52, %49, %47, %45, %43, %38, %36, %32, %25, %19, %82
  %.0 = phi i32 [ -1, %19 ], [ %85, %82 ], [ -1, %78 ], [ -1, %74 ], [ -1, %71 ], [ -1, %67 ], [ -1, %65 ], [ -1, %61 ], [ -1, %49 ], [ -1, %47 ], [ -1, %45 ], [ -1, %43 ], [ -1, %58 ], [ -1, %56 ], [ -1, %52 ], [ -1, %38 ], [ -1, %36 ], [ -1, %32 ], [ -1, %25 ]
  tail call void @BN_CTX_end(ptr noundef nonnull %.0105) #4
  tail call void @BN_CTX_free(ptr noundef %.0106) #4
  br label %87

87:                                               ; preds = %14, %3, %86
  %.0104 = phi i32 [ %.0, %86 ], [ 1, %3 ], [ -1, %14 ]
  ret i32 %.0104
}